; Function Attrs: mustprogress uwtable
define noundef double @_ZNK8QuantLib36AnalyticHolderExtensibleOptionEngine5I1PutEv(ptr noundef nonnull align 8 dereferenceable(376) %this) local_unnamed_addr #8 align 2 personality ptr @__gxx_personality_v0 {
entry:
  %bs = alloca %"class.QuantLib::BlackScholesCalculator", align 8
  %ref.tmp = alloca %"class.QuantLib::BlackScholesCalculator", align 8
  %process_ = getelementptr inbounds nuw i8, ptr %this, i64 360
  %0 = load ptr, ptr %process_, align 8, !tbaa !39
  %cmp.not.i = icmp eq ptr %0, null
  br i1 %cmp.not.i, label %cond.false.i, label %_ZNK5boost10shared_ptrIN8QuantLib30GeneralizedBlackScholesProcessEEptEv.exit, !prof !46

cond.false.i:                                     ; preds = %entry
  tail call void @_ZN5boost16assertion_failedEPKcS1_S1_l(ptr noundef nonnull @.str.14, ptr noundef nonnull @__PRETTY_FUNCTION__._ZNK5boost10shared_ptrIN8QuantLib30GeneralizedBlackScholesProcessEEptEv, ptr noundef nonnull @.str.15, i64 noundef 784)
  %.pre.i = load ptr, ptr %process_, align 8, !tbaa !39
  br label %_ZNK5boost10shared_ptrIN8QuantLib30GeneralizedBlackScholesProcessEEptEv.exit

_ZNK5boost10shared_ptrIN8QuantLib30GeneralizedBlackScholesProcessEEptEv.exit: ; preds = %entry, %cond.false.i
  %1 = phi ptr [ %0, %entry ], [ %.pre.i, %cond.false.i ]
  %vtable = load ptr, ptr %1, align 8, !tbaa !35
  %vfn = getelementptr inbounds i8, ptr %vtable, i64 120
  %2 = load ptr, ptr %vfn, align 8
  %call2 = tail call noundef double %2(ptr noundef nonnull align 8 dereferenceable(250) %1)
  %call3 = tail call noundef double @_ZNK8QuantLib36AnalyticHolderExtensibleOptionEngine6strikeEv(ptr noundef nonnull align 8 dereferenceable(376) %this)
  %premium = getelementptr inbounds nuw i8, ptr %this, i64 152
  %3 = load double, ptr %premium, align 8, !tbaa !74
  call void @llvm.lifetime.start.p0(i64 168, ptr nonnull %bs) #26
  call void @_ZNK8QuantLib36AnalyticHolderExtensibleOptionEngine12bsCalculatorEdNS_6Option4TypeE(ptr dead_on_unwind nonnull writable sret(%"class.QuantLib::BlackScholesCalculator") align 8 %bs, ptr noundef nonnull align 8 dereferenceable(376) %this, double noundef %call2, i32 noundef -1)
  %call4 = call noundef double @_ZNK8QuantLib15BlackCalculator5valueEv(ptr noundef nonnull align 8 dereferenceable(152) %bs)
  %spot_.i = getelementptr inbounds nuw i8, ptr %bs, i64 152
  %4 = load double, ptr %spot_.i, align 8, !tbaa !122
  %call.i14 = call noundef double @_ZNK8QuantLib15BlackCalculator5deltaEd(ptr noundef nonnull align 8 dereferenceable(152) %bs, double noundef %4)
  %sub = fsub double %call4, %3
  %add = fadd double %call2, %sub
  %yi.019 = fsub double %add, %call3
  %5 = call double @llvm.fabs.f64(double %yi.019)
  %cmp20 = fcmp ogt double %5, 1.000000e-03
  br i1 %cmp20, label %while.body.lr.ph, label %while.end

while.body.lr.ph:                                 ; preds = %_ZNK5boost10shared_ptrIN8QuantLib30GeneralizedBlackScholesProcessEEptEv.exit
  %strike_.i.i = getelementptr inbounds nuw i8, ptr %bs, i64 8
  %strike_2.i.i = getelementptr inbounds nuw i8, ptr %ref.tmp, i64 8
  %spot_2.i = getelementptr inbounds nuw i8, ptr %ref.tmp, i64 152
  br label %while.body

while.body:                                       ; preds = %while.body.lr.ph, %while.body
  %yi.023 = phi double [ %yi.019, %while.body.lr.ph ], [ %yi.0, %while.body ]
  %Sv.022 = phi double [ %call2, %while.body.lr.ph ], [ %sub10, %while.body ]
  %di.0.in21 = phi double [ %call.i14, %while.body.lr.ph ], [ %call.i17, %while.body ]
  %di.0 = fadd double %di.0.in21, -1.000000e+00
  %div = fdiv double %yi.023, %di.0
  %sub10 = fsub double %Sv.022, %div
  call void @llvm.lifetime.start.p0(i64 168, ptr nonnull %ref.tmp) #26
  call void @_ZNK8QuantLib36AnalyticHolderExtensibleOptionEngine12bsCalculatorEdNS_6Option4TypeE(ptr dead_on_unwind nonnull writable sret(%"class.QuantLib::BlackScholesCalculator") align 8 %ref.tmp, ptr noundef nonnull align 8 dereferenceable(376) %this, double noundef %sub10, i32 noundef -1)
  call void @llvm.memcpy.p0.p0.i64(ptr noundef nonnull align 8 dereferenceable(144) %strike_.i.i, ptr noundef nonnull align 8 dereferenceable(144) %strike_2.i.i, i64 144, i1 false)
  call void @llvm.memcpy.p0.p0.i64(ptr noundef nonnull align 8 dereferenceable(16) %spot_.i, ptr noundef nonnull align 8 dereferenceable(16) %spot_2.i, i64 16, i1 false)
  call void @llvm.lifetime.end.p0(i64 168, ptr nonnull %ref.tmp) #26
  %call16 = call noundef double @_ZNK8QuantLib15BlackCalculator5valueEv(ptr noundef nonnull align 8 dereferenceable(152) %bs)
  %6 = load double, ptr %spot_.i, align 8, !tbaa !122
  %call.i17 = call noundef double @_ZNK8QuantLib15BlackCalculator5deltaEd(ptr noundef nonnull align 8 dereferenceable(152) %bs, double noundef %6)
  %sub19 = fsub double %call16, %3
  %add20 = fadd double %sub10, %sub19
  %yi.0 = fsub double %add20, %call3
  %7 = call double @llvm.fabs.f64(double %yi.0)
  %cmp = fcmp ogt double %7, 1.000000e-03
  br i1 %cmp, label %while.body, label %while.end, !llvm.loop !126

while.end:                                        ; preds = %while.body, %_ZNK5boost10shared_ptrIN8QuantLib30GeneralizedBlackScholesProcessEEptEv.exit
  %Sv.0.lcssa = phi double [ %call2, %_ZNK5boost10shared_ptrIN8QuantLib30GeneralizedBlackScholesProcessEEptEv.exit ], [ %sub10, %while.body ]
  call void @llvm.lifetime.end.p0(i64 168, ptr nonnull %bs) #26
  ret double %Sv.0.lcssa
}